target datalayout = "e-m:e-p270:32:32-p271:32:32-p272:64:64-i64:64-i128:128-f80:128-n8:16:32:64-S128"
target triple = "x86_64-pc-linux-gnu"

%struct.H5C_cache_entry_t = type { ptr, i64, i64, ptr, i8, ptr, i8, i8, i8, i8, i32, i8, i8, i8, i8, i8, i32, ptr, i32, i32, i32, i32, i32, i8, i8, ptr, ptr, ptr, ptr, ptr, ptr, i8, i32, i8, i64, ptr, i64, i64, i32, i8, i32, i32, i8, ptr, ptr, ptr }
%struct.H5EA_hdr_t = type { %struct.H5C_cache_entry_t, %struct.H5EA_create_t, i64, %struct.H5EA_stat_t, %struct.anon.1, i64, i64, i64, ptr, i64, i8, i64, i64, i8, i64, ptr, i64, ptr, i8, ptr, ptr }
%struct.H5EA_create_t = type { ptr, i8, i8, i8, i8, i8, i8 }
%struct.H5EA_stat_t = type { %struct.anon, %struct.anon.0 }
%struct.anon = type { i64, i64, i64 }
%struct.anon.0 = type { i64, i64, i64, i64, i64, i64 }
%struct.anon.1 = type { i64, ptr }
%struct.H5EA_dblock_t = type { %struct.H5C_cache_entry_t, i64, ptr, ptr, i64, i64, i8, ptr, ptr, i64, i64 }
%struct.H5EA_dblock_cache_ud_t = type { ptr, ptr, i64, i64 }

@H5EA_init_g = external global i8, align 1
@H5_libterm_g = external global i8, align 1

; Function Attrs: nounwind uwtable
define internal i32 @H5EA__cache_dblock_get_initial_load_size(ptr noundef %0, ptr noundef %1) #0 {
  %3 = alloca ptr, align 8
  %4 = alloca ptr, align 8
  %5 = alloca ptr, align 8
  %6 = alloca %struct.H5EA_dblock_t, align 8
  store ptr %0, ptr %3, align 8, !tbaa !3
  store ptr %1, ptr %4, align 8, !tbaa !7
  call void @llvm.lifetime.start.p0(i64 8, ptr %5) #8
  %7 = load ptr, ptr %3, align 8, !tbaa !3
  store ptr %7, ptr %5, align 8, !tbaa !148
  call void @llvm.lifetime.start.p0(i64 328, ptr %6) #8
  %8 = load i8, ptr @H5EA_init_g, align 1, !tbaa !11, !range !13, !noundef !14
  %9 = trunc i8 %8 to i1
  br i1 %9, label %14, label %10

10:                                               ; preds = %2
  %11 = load i8, ptr @H5_libterm_g, align 1, !tbaa !11, !range !13, !noundef !14
  %12 = trunc i8 %11 to i1
  %13 = xor i1 %12, true
  br label %14

14:                                               ; preds = %10, %2
  %15 = phi i1 [ true, %2 ], [ %13, %10 ]
  %16 = xor i1 %15, true
  %17 = xor i1 %16, true
  %18 = zext i1 %17 to i32
  %19 = sext i32 %18 to i64
  %20 = call i64 @llvm.expect.i64(i64 %19, i64 1)
  %21 = icmp ne i64 %20, 0
  br i1 %21, label %22, label %96

22:                                               ; preds = %14
  call void @llvm.memset.p0.i64(ptr align 8 %6, i8 0, i64 328, i1 false)
  %23 = load ptr, ptr %5, align 8, !tbaa !148
  %24 = getelementptr inbounds nuw %struct.H5EA_dblock_cache_ud_t, ptr %23, i32 0, i32 0
  %25 = load ptr, ptr %24, align 8, !tbaa !150
  %26 = getelementptr inbounds nuw %struct.H5EA_dblock_t, ptr %6, i32 0, i32 3
  store ptr %25, ptr %26, align 8, !tbaa !152
  %27 = load ptr, ptr %5, align 8, !tbaa !148
  %28 = getelementptr inbounds nuw %struct.H5EA_dblock_cache_ud_t, ptr %27, i32 0, i32 2
  %29 = load i64, ptr %28, align 8, !tbaa !154
  %30 = getelementptr inbounds nuw %struct.H5EA_dblock_t, ptr %6, i32 0, i32 9
  store i64 %29, ptr %30, align 8, !tbaa !155
  %31 = load ptr, ptr %5, align 8, !tbaa !148
  %32 = getelementptr inbounds nuw %struct.H5EA_dblock_cache_ud_t, ptr %31, i32 0, i32 2
  %33 = load i64, ptr %32, align 8, !tbaa !154
  %34 = load ptr, ptr %5, align 8, !tbaa !148
  %35 = getelementptr inbounds nuw %struct.H5EA_dblock_cache_ud_t, ptr %34, i32 0, i32 0
  %36 = load ptr, ptr %35, align 8, !tbaa !150
  %37 = getelementptr inbounds nuw %struct.H5EA_hdr_t, ptr %36, i32 0, i32 16
  %38 = load i64, ptr %37, align 8, !tbaa !128
  %39 = icmp ugt i64 %33, %38
  br i1 %39, label %40, label %51

40:                                               ; preds = %22
  %41 = load ptr, ptr %5, align 8, !tbaa !148
  %42 = getelementptr inbounds nuw %struct.H5EA_dblock_cache_ud_t, ptr %41, i32 0, i32 2
  %43 = load i64, ptr %42, align 8, !tbaa !154
  %44 = load ptr, ptr %5, align 8, !tbaa !148
  %45 = getelementptr inbounds nuw %struct.H5EA_dblock_cache_ud_t, ptr %44, i32 0, i32 0
  %46 = load ptr, ptr %45, align 8, !tbaa !150
  %47 = getelementptr inbounds nuw %struct.H5EA_hdr_t, ptr %46, i32 0, i32 16
  %48 = load i64, ptr %47, align 8, !tbaa !128
  %49 = udiv i64 %43, %48
  %50 = getelementptr inbounds nuw %struct.H5EA_dblock_t, ptr %6, i32 0, i32 10
  store i64 %49, ptr %50, align 8, !tbaa !156
  br label %51

51:                                               ; preds = %40, %22
  %52 = getelementptr inbounds nuw %struct.H5EA_dblock_t, ptr %6, i32 0, i32 10
  %53 = load i64, ptr %52, align 8, !tbaa !156
  %54 = icmp ne i64 %53, 0
  br i1 %54, label %82, label %55

55:                                               ; preds = %51
  %56 = getelementptr inbounds nuw %struct.H5EA_dblock_t, ptr %6, i32 0, i32 3
  %57 = load ptr, ptr %56, align 8, !tbaa !152
  %58 = getelementptr inbounds nuw %struct.H5EA_hdr_t, ptr %57, i32 0, i32 11
  %59 = load i64, ptr %58, align 8, !tbaa !77
  %60 = add i64 10, %59
  %61 = getelementptr inbounds nuw %struct.H5EA_dblock_t, ptr %6, i32 0, i32 3
  %62 = load ptr, ptr %61, align 8, !tbaa !152
  %63 = getelementptr inbounds nuw %struct.H5EA_hdr_t, ptr %62, i32 0, i32 13
  %64 = load i8, ptr %63, align 8, !tbaa !131
  %65 = zext i8 %64 to i64
  %66 = add i64 %60, %65
  %67 = getelementptr inbounds nuw %struct.H5EA_dblock_t, ptr %6, i32 0, i32 9
  %68 = load i64, ptr %67, align 8, !tbaa !155
  %69 = getelementptr inbounds nuw %struct.H5EA_dblock_t, ptr %6, i32 0, i32 3
  %70 = load ptr, ptr %69, align 8, !tbaa !152
  %71 = getelementptr inbounds nuw %struct.H5EA_hdr_t, ptr %70, i32 0, i32 1
  %72 = getelementptr inbounds nuw %struct.H5EA_create_t, ptr %71, i32 0, i32 1
  %73 = load i8, ptr %72, align 8, !tbaa !49
  %74 = zext i8 %73 to i64
  %75 = mul i64 %68, %74
  %76 = add i64 %66, %75
  %77 = getelementptr inbounds nuw %struct.H5EA_dblock_t, ptr %6, i32 0, i32 10
  %78 = load i64, ptr %77, align 8, !tbaa !156
  %79 = mul i64 %78, 4
  %80 = add i64 %76, %79
  %81 = load ptr, ptr %4, align 8, !tbaa !7
  store i64 %80, ptr %81, align 8, !tbaa !19
  br label %95

82:                                               ; preds = %51
  %83 = getelementptr inbounds nuw %struct.H5EA_dblock_t, ptr %6, i32 0, i32 3
  %84 = load ptr, ptr %83, align 8, !tbaa !152
  %85 = getelementptr inbounds nuw %struct.H5EA_hdr_t, ptr %84, i32 0, i32 11
  %86 = load i64, ptr %85, align 8, !tbaa !77
  %87 = add i64 10, %86
  %88 = getelementptr inbounds nuw %struct.H5EA_dblock_t, ptr %6, i32 0, i32 3
  %89 = load ptr, ptr %88, align 8, !tbaa !152
  %90 = getelementptr inbounds nuw %struct.H5EA_hdr_t, ptr %89, i32 0, i32 13
  %91 = load i8, ptr %90, align 8, !tbaa !131
  %92 = zext i8 %91 to i64
  %93 = add i64 %87, %92
  %94 = load ptr, ptr %4, align 8, !tbaa !7
  store i64 %93, ptr %94, align 8, !tbaa !19
  br label %95

95:                                               ; preds = %82, %55
  br label %96

96:                                               ; preds = %95, %14
  call void @llvm.lifetime.end.p0(i64 328, ptr %6) #8
  call void @llvm.lifetime.end.p0(i64 8, ptr %5) #8
  ret i32 0
}