; Function Attrs: mustprogress nofree norecurse nosync nounwind willreturn memory(read, argmem: readwrite, inaccessiblemem: none) uwtable
define internal noundef i32 @H5EA__cache_dblock_get_initial_load_size(ptr noundef readonly captures(none) %0, ptr noundef writeonly captures(none) %1) #1 {
  %3 = load i8, ptr @H5EA_init_g, align 1, !tbaa !3, !range !7, !noundef !8
  %4 = trunc nuw i8 %3 to i1
  %5 = load i8, ptr @H5_libterm_g, align 1, !range !7
  %6 = trunc nuw i8 %5 to i1
  %7 = xor i1 %6, true
  %8 = select i1 %4, i1 true, i1 %7
  br i1 %8, label %9, label %28, !prof !9

9:                                                ; preds = %2
  %10 = load ptr, ptr %0, align 8, !tbaa !128
  %11 = getelementptr inbounds nuw i8, ptr %0, i64 16
  %12 = load i64, ptr %11, align 8, !tbaa !130
  %13 = getelementptr inbounds nuw i8, ptr %10, i64 448
  %14 = load i64, ptr %13, align 8, !tbaa !107
  %.not = icmp ugt i64 %12, %14
  %15 = getelementptr inbounds nuw i8, ptr %10, i64 408
  %16 = load i64, ptr %15, align 8, !tbaa !64
  %17 = add i64 %16, 10
  %18 = getelementptr inbounds nuw i8, ptr %10, i64 424
  %19 = load i8, ptr %18, align 8, !tbaa !108
  %20 = zext i8 %19 to i64
  %21 = add i64 %17, %20
  br i1 %.not, label %.sink.split, label %22

22:                                               ; preds = %9
  %23 = getelementptr inbounds nuw i8, ptr %10, i64 256
  %24 = load i8, ptr %23, align 8, !tbaa !42
  %25 = zext i8 %24 to i64
  %26 = mul i64 %12, %25
  %27 = add i64 %21, %26
  br label %.sink.split

.sink.split:                                      ; preds = %9, %22
  %.sink = phi i64 [ %27, %22 ], [ %21, %9 ]
  store i64 %.sink, ptr %1, align 8, !tbaa !15
  br label %28

28:                                               ; preds = %.sink.split, %2
  ret i32 0
}